target datalayout = "e-m:e-p270:32:32-p271:32:32-p272:64:64-i64:64-i128:128-f80:128-n8:16:32:64-S128"
target triple = "x86_64-pc-linux-gnu"

%struct.jit_State = type { %struct.GCtrace, ptr, ptr, ptr, ptr, ptr, ptr, i32, i32, i32, i8, i8, %struct.IRType1, i8, %struct.FoldState, ptr, i32, i32, i32, i32, i32, i32, i32, [1 x i32], [5 x %union.TValue], [3 x %union.TValue], ptr, i32, i32, i32, i32, ptr, ptr, i32, i32, i8, ptr, i32, i32, i16, [101 x i16], [258 x i32], [15 x i32], [16 x ptr], [64 x %struct.HotPenalty], i32, [16 x %struct.BPropEntry], i32, %struct.ScEvEntry, ptr, i32, i32, i32, ptr, i32, i32, ptr, ptr, ptr, i64, i64, %union.TValue, ptr, i32, i32 }
%struct.GCtrace = type { %struct.GCRef, i8, i8, i16, i32, i32, %struct.GCRef, ptr, i32, i32, ptr, ptr, %struct.GCRef, %struct.MRef, i32, i32, ptr, i32, i16, i16, i16, i16, i16, i16, i16, i8, i8, i8, i8 }
%struct.GCRef = type { i64 }
%struct.MRef = type { i64 }
%struct.IRType1 = type { i8 }
%struct.FoldState = type { %union.IRIns, [2 x %union.IRIns], [2 x %union.IRIns] }
%union.IRIns = type { %struct.GCRef }
%struct.HotPenalty = type { %struct.MRef, i16, i16 }
%struct.BPropEntry = type { i16, i16, i32 }
%struct.ScEvEntry = type { %struct.MRef, i16, i16, i16, i16, %struct.IRType1, i8 }
%union.TValue = type { i64 }
%struct.lua_State = type { %struct.GCRef, i8, i8, i8, i8, %struct.MRef, %struct.GCRef, ptr, ptr, %struct.MRef, %struct.MRef, %struct.GCRef, %struct.GCRef, ptr, i32 }
%struct.global_State = type { ptr, ptr, %struct.GCState, %struct.GCstr, i8, i8, i8, i8, %struct.StrInternState, i32, %struct.GCRef, %struct.SBuf, %union.TValue, %union.TValue, %struct.Node, %union.TValue, %struct.GCupval, i32, i32, ptr, ptr, ptr, i32, i32, %struct.GCRef, %struct.MRef, %struct.MRef, %struct.PRNGState, [39 x %struct.GCRef] }
%struct.GCState = type { i64, i64, i8, i8, i8, i8, i32, %struct.GCRef, %struct.MRef, %struct.GCRef, %struct.GCRef, %struct.GCRef, %struct.GCRef, i64, i64, i32, i32, %struct.MRef }
%struct.GCstr = type { %struct.GCRef, i8, i8, i8, i8, i32, i32, i32 }
%struct.StrInternState = type { ptr, i32, i32, i32, i8, i8, i8, i8, i64 }
%struct.SBuf = type { ptr, ptr, ptr, %struct.MRef }
%struct.Node = type { %union.TValue, %union.TValue, %struct.MRef }
%struct.GCupval = type { %struct.GCRef, i8, i8, i8, i8, %union.anon, %struct.MRef, i32 }
%union.anon = type { %struct.anon.3 }
%struct.anon.3 = type { %struct.GCRef, %struct.GCRef }
%struct.PRNGState = type { [4 x i64] }

; Function Attrs: alwaysinline nounwind uwtable
define internal void @lj_mem_free(ptr noundef %0, ptr noundef %1, i64 noundef %2) #5 {
  %4 = alloca ptr, align 8
  %5 = alloca ptr, align 8
  %6 = alloca i64, align 8
  store ptr %0, ptr %4, align 8, !tbaa !75
  store ptr %1, ptr %5, align 8, !tbaa !58
  store i64 %2, ptr %6, align 8, !tbaa !48
  %7 = load i64, ptr %6, align 8, !tbaa !48
  %8 = load ptr, ptr %4, align 8, !tbaa !75
  %9 = getelementptr inbounds nuw %struct.global_State, ptr %8, i32 0, i32 2
  %10 = getelementptr inbounds nuw %struct.GCState, ptr %9, i32 0, i32 0
  %11 = load i64, ptr %10, align 8, !tbaa !77
  %12 = sub i64 %11, %7
  store i64 %12, ptr %10, align 8, !tbaa !77
  %13 = load ptr, ptr %4, align 8, !tbaa !75
  %14 = getelementptr inbounds nuw %struct.global_State, ptr %13, i32 0, i32 0
  %15 = load ptr, ptr %14, align 8, !tbaa !86
  %16 = load ptr, ptr %4, align 8, !tbaa !75
  %17 = getelementptr inbounds nuw %struct.global_State, ptr %16, i32 0, i32 1
  %18 = load ptr, ptr %17, align 8, !tbaa !87
  %19 = load ptr, ptr %5, align 8, !tbaa !58
  %20 = load i64, ptr %6, align 8, !tbaa !48
  %21 = call ptr %15(ptr noundef %18, ptr noundef %19, i64 noundef %20, i64 noundef 0)
  ret void
}

; Function Attrs: nounwind uwtable
define internal void @lj_ir_growbot(ptr noundef %0) #3 {
  %2 = alloca ptr, align 8
  %3 = alloca ptr, align 8
  %4 = alloca i32, align 4
  %5 = alloca i32, align 4
  %6 = alloca ptr, align 8
  %7 = alloca i32, align 4
  store ptr %0, ptr %2, align 8, !tbaa !4
  call void @llvm.lifetime.start.p0(i64 8, ptr %3) #10
  %8 = load ptr, ptr %2, align 8, !tbaa !4
  %9 = getelementptr inbounds nuw %struct.jit_State, ptr %8, i32 0, i32 26
  %10 = load ptr, ptr %9, align 8, !tbaa !9
  %11 = load ptr, ptr %2, align 8, !tbaa !4
  %12 = getelementptr inbounds nuw %struct.jit_State, ptr %11, i32 0, i32 28
  %13 = load i32, ptr %12, align 4, !tbaa !29
  %14 = zext i32 %13 to i64
  %15 = getelementptr inbounds nuw %union.IRIns, ptr %10, i64 %14
  store ptr %15, ptr %3, align 8, !tbaa !30
  call void @llvm.lifetime.start.p0(i64 4, ptr %4) #10
  %16 = load ptr, ptr %2, align 8, !tbaa !4
  %17 = getelementptr inbounds nuw %struct.jit_State, ptr %16, i32 0, i32 27
  %18 = load i32, ptr %17, align 8, !tbaa !31
  %19 = load ptr, ptr %2, align 8, !tbaa !4
  %20 = getelementptr inbounds nuw %struct.jit_State, ptr %19, i32 0, i32 28
  %21 = load i32, ptr %20, align 4, !tbaa !29
  %22 = sub i32 %18, %21
  store i32 %22, ptr %4, align 4, !tbaa !32
  %23 = load ptr, ptr %2, align 8, !tbaa !4
  %24 = getelementptr inbounds nuw %struct.jit_State, ptr %23, i32 0, i32 0
  %25 = getelementptr inbounds nuw %struct.GCtrace, ptr %24, i32 0, i32 4
  %26 = load i32, ptr %25, align 4, !tbaa !40
  %27 = load i32, ptr %4, align 4, !tbaa !32
  %28 = lshr i32 %27, 1
  %29 = add i32 %26, %28
  %30 = load ptr, ptr %2, align 8, !tbaa !4
  %31 = getelementptr inbounds nuw %struct.jit_State, ptr %30, i32 0, i32 27
  %32 = load i32, ptr %31, align 8, !tbaa !31
  %33 = icmp ult i32 %29, %32
  br i1 %33, label %34, label %74

34:                                               ; preds = %1
  call void @llvm.lifetime.start.p0(i64 4, ptr %5) #10
  %35 = load i32, ptr %4, align 4, !tbaa !32
  %36 = lshr i32 %35, 2
  store i32 %36, ptr %5, align 4, !tbaa !32
  %37 = load ptr, ptr %3, align 8, !tbaa !30
  %38 = load i32, ptr %5, align 4, !tbaa !32
  %39 = zext i32 %38 to i64
  %40 = getelementptr inbounds nuw %union.IRIns, ptr %37, i64 %39
  %41 = load ptr, ptr %3, align 8, !tbaa !30
  %42 = load ptr, ptr %2, align 8, !tbaa !4
  %43 = getelementptr inbounds nuw %struct.jit_State, ptr %42, i32 0, i32 0
  %44 = getelementptr inbounds nuw %struct.GCtrace, ptr %43, i32 0, i32 4
  %45 = load i32, ptr %44, align 4, !tbaa !40
  %46 = load ptr, ptr %2, align 8, !tbaa !4
  %47 = getelementptr inbounds nuw %struct.jit_State, ptr %46, i32 0, i32 28
  %48 = load i32, ptr %47, align 4, !tbaa !29
  %49 = sub i32 %45, %48
  %50 = zext i32 %49 to i64
  %51 = mul i64 %50, 8
  call void @llvm.memmove.p0.p0.i64(ptr align 8 %40, ptr align 8 %41, i64 %51, i1 false)
  %52 = load i32, ptr %5, align 4, !tbaa !32
  %53 = load ptr, ptr %2, align 8, !tbaa !4
  %54 = getelementptr inbounds nuw %struct.jit_State, ptr %53, i32 0, i32 28
  %55 = load i32, ptr %54, align 4, !tbaa !29
  %56 = sub i32 %55, %52
  store i32 %56, ptr %54, align 4, !tbaa !29
  %57 = load i32, ptr %5, align 4, !tbaa !32
  %58 = load ptr, ptr %2, align 8, !tbaa !4
  %59 = getelementptr inbounds nuw %struct.jit_State, ptr %58, i32 0, i32 27
  %60 = load i32, ptr %59, align 8, !tbaa !31
  %61 = sub i32 %60, %57
  store i32 %61, ptr %59, align 8, !tbaa !31
  %62 = load ptr, ptr %3, align 8, !tbaa !30
  %63 = load ptr, ptr %2, align 8, !tbaa !4
  %64 = getelementptr inbounds nuw %struct.jit_State, ptr %63, i32 0, i32 28
  %65 = load i32, ptr %64, align 4, !tbaa !29
  %66 = zext i32 %65 to i64
  %67 = sub i64 0, %66
  %68 = getelementptr inbounds %union.IRIns, ptr %62, i64 %67
  %69 = load ptr, ptr %2, align 8, !tbaa !4
  %70 = getelementptr inbounds nuw %struct.jit_State, ptr %69, i32 0, i32 26
  store ptr %68, ptr %70, align 8, !tbaa !9
  %71 = load ptr, ptr %2, align 8, !tbaa !4
  %72 = getelementptr inbounds nuw %struct.jit_State, ptr %71, i32 0, i32 0
  %73 = getelementptr inbounds nuw %struct.GCtrace, ptr %72, i32 0, i32 7
  store ptr %68, ptr %73, align 8, !tbaa !34
  call void @llvm.lifetime.end.p0(i64 4, ptr %5) #10
  br label %142

74:                                               ; preds = %1
  call void @llvm.lifetime.start.p0(i64 8, ptr %6) #10
  %75 = load ptr, ptr %2, align 8, !tbaa !4
  %76 = getelementptr inbounds nuw %struct.jit_State, ptr %75, i32 0, i32 2
  %77 = load ptr, ptr %76, align 8, !tbaa !33
  %78 = load i32, ptr %4, align 4, !tbaa !32
  %79 = mul i32 2, %78
  %80 = zext i32 %79 to i64
  %81 = mul i64 %80, 8
  %82 = call ptr @lj_mem_realloc(ptr noundef %77, ptr noundef null, i64 noundef 0, i64 noundef %81)
  store ptr %82, ptr %6, align 8, !tbaa !30
  call void @llvm.lifetime.start.p0(i64 4, ptr %7) #10
  %83 = load i32, ptr %4, align 4, !tbaa !32
  %84 = icmp uge i32 %83, 256
  br i1 %84, label %85, label %86

85:                                               ; preds = %74
  br label %89

86:                                               ; preds = %74
  %87 = load i32, ptr %4, align 4, !tbaa !32
  %88 = lshr i32 %87, 1
  br label %89

89:                                               ; preds = %86, %85
  %90 = phi i32 [ 128, %85 ], [ %88, %86 ]
  store i32 %90, ptr %7, align 4, !tbaa !32
  %91 = load ptr, ptr %6, align 8, !tbaa !30
  %92 = load i32, ptr %7, align 4, !tbaa !32
  %93 = zext i32 %92 to i64
  %94 = getelementptr inbounds nuw %union.IRIns, ptr %91, i64 %93
  %95 = load ptr, ptr %3, align 8, !tbaa !30
  %96 = load ptr, ptr %2, align 8, !tbaa !4
  %97 = getelementptr inbounds nuw %struct.jit_State, ptr %96, i32 0, i32 0
  %98 = getelementptr inbounds nuw %struct.GCtrace, ptr %97, i32 0, i32 4
  %99 = load i32, ptr %98, align 4, !tbaa !40
  %100 = load ptr, ptr %2, align 8, !tbaa !4
  %101 = getelementptr inbounds nuw %struct.jit_State, ptr %100, i32 0, i32 28
  %102 = load i32, ptr %101, align 4, !tbaa !29
  %103 = sub i32 %99, %102
  %104 = zext i32 %103 to i64
  %105 = mul i64 %104, 8
  call void @llvm.memcpy.p0.p0.i64(ptr align 8 %94, ptr align 8 %95, i64 %105, i1 false)
  %106 = load ptr, ptr %2, align 8, !tbaa !4
  %107 = getelementptr inbounds nuw %struct.jit_State, ptr %106, i32 0, i32 2
  %108 = load ptr, ptr %107, align 8, !tbaa !33
  %109 = getelementptr inbounds nuw %struct.lua_State, ptr %108, i32 0, i32 5
  %110 = getelementptr inbounds nuw %struct.MRef, ptr %109, i32 0, i32 0
  %111 = load i64, ptr %110, align 8, !tbaa !73
  %112 = inttoptr i64 %111 to ptr
  %113 = load ptr, ptr %3, align 8, !tbaa !30
  %114 = load i32, ptr %4, align 4, !tbaa !32
  %115 = zext i32 %114 to i64
  %116 = mul i64 %115, 8
  call void @lj_mem_free(ptr noundef %112, ptr noundef %113, i64 noundef %116)
  %117 = load i32, ptr %7, align 4, !tbaa !32
  %118 = load ptr, ptr %2, align 8, !tbaa !4
  %119 = getelementptr inbounds nuw %struct.jit_State, ptr %118, i32 0, i32 28
  %120 = load i32, ptr %119, align 4, !tbaa !29
  %121 = sub i32 %120, %117
  store i32 %121, ptr %119, align 4, !tbaa !29
  %122 = load ptr, ptr %2, align 8, !tbaa !4
  %123 = getelementptr inbounds nuw %struct.jit_State, ptr %122, i32 0, i32 28
  %124 = load i32, ptr %123, align 4, !tbaa !29
  %125 = load i32, ptr %4, align 4, !tbaa !32
  %126 = mul i32 2, %125
  %127 = add i32 %124, %126
  %128 = load ptr, ptr %2, align 8, !tbaa !4
  %129 = getelementptr inbounds nuw %struct.jit_State, ptr %128, i32 0, i32 27
  store i32 %127, ptr %129, align 8, !tbaa !31
  %130 = load ptr, ptr %6, align 8, !tbaa !30
  %131 = load ptr, ptr %2, align 8, !tbaa !4
  %132 = getelementptr inbounds nuw %struct.jit_State, ptr %131, i32 0, i32 28
  %133 = load i32, ptr %132, align 4, !tbaa !29
  %134 = zext i32 %133 to i64
  %135 = sub i64 0, %134
  %136 = getelementptr inbounds %union.IRIns, ptr %130, i64 %135
  %137 = load ptr, ptr %2, align 8, !tbaa !4
  %138 = getelementptr inbounds nuw %struct.jit_State, ptr %137, i32 0, i32 26
  store ptr %136, ptr %138, align 8, !tbaa !9
  %139 = load ptr, ptr %2, align 8, !tbaa !4
  %140 = getelementptr inbounds nuw %struct.jit_State, ptr %139, i32 0, i32 0
  %141 = getelementptr inbounds nuw %struct.GCtrace, ptr %140, i32 0, i32 7
  store ptr %136, ptr %141, align 8, !tbaa !34
  call void @llvm.lifetime.end.p0(i64 4, ptr %7) #10
  call void @llvm.lifetime.end.p0(i64 8, ptr %6) #10
  br label %142

142:                                              ; preds = %89, %34
  call void @llvm.lifetime.end.p0(i64 4, ptr %4) #10
  call void @llvm.lifetime.end.p0(i64 8, ptr %3) #10
  ret void
}