; Function Attrs: nounwind uwtable
define internal fastcc void @lj_ir_growbot(ptr noundef captures(none) initializes((32, 40)) %0) unnamed_addr #6 {
  %2 = getelementptr inbounds nuw i8, ptr %0, i64 328
  %3 = load ptr, ptr %2, align 8, !tbaa !28
  %4 = getelementptr inbounds nuw i8, ptr %0, i64 340
  %5 = load i32, ptr %4, align 4, !tbaa !4
  %6 = zext i32 %5 to i64
  %7 = getelementptr inbounds nuw %union.IRIns, ptr %3, i64 %6
  %8 = getelementptr inbounds nuw i8, ptr %0, i64 336
  %9 = load i32, ptr %8, align 8, !tbaa !27
  %10 = sub i32 %9, %5
  %11 = getelementptr inbounds nuw i8, ptr %0, i64 12
  %12 = load i32, ptr %11, align 4, !tbaa !31
  %13 = lshr i32 %10, 1
  %14 = add i32 %13, %12
  %15 = icmp ult i32 %14, %9
  br i1 %15, label %16, label %27

16:                                               ; preds = %1
  %17 = lshr i32 %10, 2
  %18 = zext nneg i32 %17 to i64
  %19 = getelementptr inbounds nuw %union.IRIns, ptr %7, i64 %18
  %20 = sub i32 %12, %5
  %21 = zext i32 %20 to i64
  %22 = shl nuw nsw i64 %21, 3
  tail call void @llvm.memmove.p0.p0.i64(ptr align 8 %19, ptr align 8 %7, i64 %22, i1 false)
  %23 = load i32, ptr %4, align 4, !tbaa !4
  %24 = sub i32 %23, %17
  %25 = load i32, ptr %8, align 8, !tbaa !27
  %26 = sub i32 %25, %17
  br label %59

27:                                               ; preds = %1
  %28 = getelementptr inbounds nuw i8, ptr %0, i64 128
  %29 = load ptr, ptr %28, align 8, !tbaa !29
  %30 = shl i32 %10, 1
  %31 = zext i32 %30 to i64
  %32 = shl nuw nsw i64 %31, 3
  %33 = tail call ptr @lj_mem_realloc(ptr noundef %29, ptr noundef null, i64 noundef 0, i64 noundef %32) #13
  %34 = icmp ugt i32 %10, 255
  %35 = select i1 %34, i32 128, i32 %13
  %36 = zext nneg i32 %35 to i64
  %37 = getelementptr inbounds nuw %union.IRIns, ptr %33, i64 %36
  %38 = load i32, ptr %11, align 4, !tbaa !31
  %39 = load i32, ptr %4, align 4, !tbaa !4
  %40 = sub i32 %38, %39
  %41 = zext i32 %40 to i64
  %42 = shl nuw nsw i64 %41, 3
  tail call void @llvm.memcpy.p0.p0.i64(ptr align 8 %37, ptr align 8 %7, i64 %42, i1 false)
  %43 = load ptr, ptr %28, align 8, !tbaa !29
  %44 = getelementptr inbounds nuw i8, ptr %43, i64 16
  %45 = load i64, ptr %44, align 8, !tbaa !55
  %46 = inttoptr i64 %45 to ptr
  %47 = zext i32 %10 to i64
  %48 = shl nuw nsw i64 %47, 3
  %49 = getelementptr inbounds nuw i8, ptr %46, i64 16
  %50 = load i64, ptr %49, align 8, !tbaa !58
  %51 = sub i64 %50, %48
  store i64 %51, ptr %49, align 8, !tbaa !58
  %52 = load ptr, ptr %46, align 8, !tbaa !67
  %53 = getelementptr inbounds nuw i8, ptr %46, i64 8
  %54 = load ptr, ptr %53, align 8, !tbaa !68
  %55 = tail call ptr %52(ptr noundef %54, ptr noundef %7, i64 noundef range(i64 0, 34359738361) %48, i64 noundef 0) #13
  %56 = load i32, ptr %4, align 4, !tbaa !4
  %57 = sub i32 %56, %35
  %58 = add i32 %57, %30
  br label %59

59:                                               ; preds = %27, %16
  %.sink46 = phi i32 [ %57, %27 ], [ %24, %16 ]
  %.sink = phi ptr [ %33, %27 ], [ %7, %16 ]
  %.sink42 = phi i32 [ %58, %27 ], [ %26, %16 ]
  %60 = zext i32 %.sink46 to i64
  %61 = sub nsw i64 0, %60
  %62 = getelementptr inbounds %union.IRIns, ptr %.sink, i64 %61
  store i32 %.sink46, ptr %4, align 4, !tbaa !4
  store i32 %.sink42, ptr %8, align 8, !tbaa !27
  store ptr %62, ptr %2, align 8, !tbaa !28
  %63 = getelementptr inbounds nuw i8, ptr %0, i64 32
  store ptr %62, ptr %63, align 8, !tbaa !30
  ret void
}